Certificate:
    Data:
        Version: 3 (0x2)
        Serial Number: 2 (0x2)
    Signature Algorithm: sha256WithRSAEncryption
        Issuer: C=CN, ST=ZhengJiang, L=HZ, O=Htrader, OU=MyHtrader, CN=APEC/name=htraderserver/emailAddress=ops@htrader.cn
        Validity
            Not Before: Nov 21 03:21:20 2017 GMT
            Not After : Nov 19 03:21:20 2027 GMT
        Subject: C=CN, ST=ZhengJiang, L=HZ, O=Htrader, OU=MyHtrader, CN=htraderclient/name=htraderserver/emailAddress=ops@htrader.cn
        Subject Public Key Info:
            Public Key Algorithm: rsaEncryption
                Public-Key: (2048 bit)
                Modulus:
                    00:cb:68:b4:53:f5:f0:55:5d:90:95:d0:05:7c:95:
                    cc:5e:2b:d5:f3:2f:fc:b0:f4:f3:be:0d:1e:ea:b0:
                    85:ca:1c:7c:03:59:ef:ea:54:92:f8:2b:3e:ee:f3:
                    c1:af:db:e9:49:14:e6:2d:67:7f:50:40:ae:e6:04:
                    11:8e:b1:7d:cc:51:57:0e:bc:ae:e8:12:b9:d3:7b:
                    47:78:af:f9:74:72:0c:45:ed:c2:6f:61:a2:1a:26:
                    7b:58:4a:60:10:96:1c:6a:d4:e6:56:4a:af:89:22:
                    58:65:6f:ab:b9:af:02:4a:d1:bd:ae:9f:72:d1:b1:
                    a7:a8:7e:87:cc:5b:c4:1a:a7:2e:83:5e:e3:5e:c5:
                    83:4f:61:9f:cf:1f:e2:7d:de:51:f2:2d:e1:0a:2b:
                    e9:3b:0a:db:f0:6e:fa:40:a2:34:83:e1:d7:59:9c:
                    18:96:71:fb:d7:6f:5a:34:8d:76:68:1c:15:67:86:
                    40:68:d6:90:b2:46:01:d2:6e:12:17:87:24:67:00:
                    6e:3d:27:56:9f:df:3d:41:38:ce:b0:c1:48:ab:01:
                    db:6e:a9:53:74:a3:5f:37:73:ca:46:3d:f6:a6:9b:
                    e7:1d:a2:b1:4e:c4:41:f2:61:e3:a8:1c:60:9b:18:
                    9a:15:42:76:c4:48:e3:cf:32:25:09:f1:ea:20:ab:
                    98:57
                Exponent: 65537 (0x10001)
        X509v3 extensions:
            X509v3 Basic Constraints: 
                CA:FALSE
            Netscape Comment: 
                Easy-RSA Generated Certificate
            X509v3 Subject Key Identifier: 
                D9:DB:0B:65:C1:2F:27:BD:E6:3F:73:33:D2:18:5D:41:37:28:2E:C5
            X509v3 Authority Key Identifier: 
                keyid:32:4B:51:AA:B0:4C:5A:B1:69:69:DD:4F:A6:C1:B0:53:BB:57:04:49
                DirName:/C=CN/ST=ZhengJiang/L=HZ/O=Htrader/OU=MyHtrader/CN=APEC/name=htraderserver/emailAddress=ops@htrader.cn
                serial:AE:AA:8B:58:5C:5F:A8:C8

            X509v3 Extended Key Usage: 
                TLS Web Client Authentication
            X509v3 Key Usage: 
                Digital Signature
    Signature Algorithm: sha256WithRSAEncryption
         3e:ef:ae:9b:34:43:94:b1:49:f8:a4:49:e6:08:a9:1d:4f:16:
         f4:33:90:64:e0:d1:b9:1d:42:d2:1d:22:b5:f1:8b:b7:2d:75:
         ee:01:09:3d:b8:2d:14:70:79:ef:94:b6:46:df:58:8a:7f:c8:
         b3:95:99:00:c2:43:a0:39:d1:7a:6c:b3:3b:f0:c4:a6:d6:33:
         27:d7:f5:61:75:72:78:44:a4:41:1b:2f:9f:83:6a:22:40:de:
         ed:e9:10:83:5c:b7:48:fe:f6:b2:9f:d5:37:0b:c4:3d:27:e3:
         ff:b5:0d:2a:5f:e8:88:b9:ef:94:3d:dd:12:84:bd:c5:71:88:
         31:04:8e:61:6e:37:4f:5a:e5:9b:2a:bd:b7:62:d5:76:5c:9a:
         e3:01:48:a5:32:f1:6b:71:8d:ba:d7:3d:f0:63:52:d3:63:48:
         9d:4b:6f:e4:bf:17:05:c7:61:b5:f6:3f:11:91:26:d8:53:9b:
         28:3e:b0:3a:2e:ac:ce:c7:4a:82:c1:5e:ad:b2:73:31:64:fb:
         66:1e:e4:37:21:ec:21:04:46:8f:ca:2e:19:9b:e6:54:36:00:
         15:08:8f:cf:c9:e6:68:1e:b4:26:ee:f7:60:8c:42:60:77:a2:
         54:85:78:88:98:9b:d5:c6:88:52:5a:1a:81:90:e0:98:39:d2:
         08:a9:34:62
-----BEGIN CERTIFICATE-----
MIIFEDCCA/igAwIBAgIBAjANBgkqhkiG9w0BAQsFADCBmzELMAkGA1UEBhMCQ04x
EzARBgNVBAgTClpoZW5nSmlhbmcxCzAJBgNVBAcTAkhaMRAwDgYDVQQKEwdIdHJh
ZGVyMRIwEAYDVQQLEwlNeUh0cmFkZXIxDTALBgNVBAMTBEFQRUMxFjAUBgNVBCkT
DWh0cmFkZXJzZXJ2ZXIxHTAbBgkqhkiG9w0BCQEWDm9wc0BodHJhZGVyLmNuMB4X
DTE3MTEyMTAzMjEyMFoXDTI3MTExOTAzMjEyMFowgaQxCzAJBgNVBAYTAkNOMRMw
EQYDVQQIEwpaaGVuZ0ppYW5nMQswCQYDVQQHEwJIWjEQMA4GA1UEChMHSHRyYWRl
cjESMBAGA1UECxMJTXlIdHJhZGVyMRYwFAYDVQQDEw1odHJhZGVyY2xpZW50MRYw
FAYDVQQpEw1odHJhZGVyc2VydmVyMR0wGwYJKoZIhvcNAQkBFg5vcHNAaHRyYWRl
ci5jbjCCASIwDQYJKoZIhvcNAQEBBQADggEPADCCAQoCggEBAMtotFP18FVdkJXQ
BXyVzF4r1fMv/LD0874NHuqwhcocfANZ7+pUkvgrPu7zwa/b6UkU5i1nf1BAruYE
EY6xfcxRVw68rugSudN7R3iv+XRyDEXtwm9hohome1hKYBCWHGrU5lZKr4kiWGVv
q7mvAkrRva6fctGxp6h+h8xbxBqnLoNe417Fg09hn88f4n3eUfIt4Qor6TsK2/Bu
+kCiNIPh11mcGJZx+9dvWjSNdmgcFWeGQGjWkLJGAdJuEheHJGcAbj0nVp/fPUE4
zrDBSKsB226pU3SjXzdzykY99qab5x2isU7EQfJh46gcYJsYmhVCdsRI488yJQnx
6iCrmFcCAwEAAaOCAVIwggFOMAkGA1UdEwQCMAAwLQYJYIZIAYb4QgENBCAWHkVh
c3ktUlNBIEdlbmVyYXRlZCBDZXJ0aWZpY2F0ZTAdBgNVHQ4EFgQU2dsLZcEvJ73m
P3Mz0hhdQTcoLsUwgdAGA1UdIwSByDCBxYAUMktRqrBMWrFpad1PpsGwU7tXBEmh
gaGkgZ4wgZsxCzAJBgNVBAYTAkNOMRMwEQYDVQQIEwpaaGVuZ0ppYW5nMQswCQYD
VQQHEwJIWjEQMA4GA1UEChMHSHRyYWRlcjESMBAGA1UECxMJTXlIdHJhZGVyMQ0w
CwYDVQQDEwRBUEVDMRYwFAYDVQQpEw1odHJhZGVyc2VydmVyMR0wGwYJKoZIhvcN
AQkBFg5vcHNAaHRyYWRlci5jboIJAK6qi1hcX6jIMBMGA1UdJQQMMAoGCCsGAQUF
BwMCMAsGA1UdDwQEAwIHgDANBgkqhkiG9w0BAQsFAAOCAQEAPu+umzRDlLFJ+KRJ
5gipHU8W9DOQZODRuR1C0h0itfGLty117gEJPbgtFHB575S2Rt9Yin/Is5WZAMJD
oDnRemyzO/DEptYzJ9f1YXVyeESkQRsvn4NqIkDe7ekQg1y3SP72sp/VNwvEPSfj
/7UNKl/oiLnvlD3dEoS9xXGIMQSOYW43T1rlmyq9t2LVdlya4wFIpTLxa3GNutc9
8GNS02NInUtv5L8XBcdhtfY/EZEm2FObKD6wOi6szsdKgsFerbJzMWT7Zh7kNyHs
IQRGj8ouGZvmVDYAFQiPz8nmaB60Ju73YIxCYHeiVIV4iJib1caIUloagZDgmDnS
CKk0Yg==
-----END CERTIFICATE-----
